target datalayout = "e-m:e-p270:32:32-p271:32:32-p272:64:64-i64:64-i128:128-f80:128-n8:16:32:64-S128"
target triple = "x86_64-pc-linux-gnu"

%struct.nstime_t = type { i64 }
%struct.ehooks_s = type { i32, %struct.atomic_p_t }
%struct.atomic_p_t = type { ptr }
%struct.base_s = type { %struct.ehooks_s, %struct.ehooks_s, %struct.malloc_mutex_s, i8, i32, i64, ptr, [232 x %struct.edata_heap_t], %struct.edata_avail_t, i64, i64, i64, i64, i64, i64 }
%struct.malloc_mutex_s = type { %union.anon.4 }
%union.anon.4 = type { %struct.anon.5 }
%struct.anon.5 = type { %struct.mutex_prof_data_t, %struct.atomic_b_t, %union.pthread_mutex_t }
%struct.mutex_prof_data_t = type { %struct.nstime_t, %struct.nstime_t, i64, i64, i32, %struct.atomic_u32_t, i64, ptr, i64 }
%struct.atomic_u32_t = type { i32 }
%struct.atomic_b_t = type { i8 }
%union.pthread_mutex_t = type { %struct.__pthread_mutex_s }
%struct.__pthread_mutex_s = type { i32, i32, i32, i32, i32, i16, i16, %struct.__pthread_internal_list }
%struct.__pthread_internal_list = type { ptr, ptr }
%struct.edata_heap_t = type { %struct.ph_s }
%struct.ph_s = type { ptr, i64 }
%struct.edata_avail_t = type { %struct.ph_s }

; Function Attrs: nounwind uwtable
define hidden ptr @je_base_alloc_rtree(ptr noundef %0, ptr noundef %1, i64 noundef %2) #0 {
  %4 = alloca ptr, align 8
  %5 = alloca ptr, align 8
  %6 = alloca ptr, align 8
  %7 = alloca i64, align 8
  %8 = alloca i64, align 8
  %9 = alloca ptr, align 8
  %10 = alloca i32, align 4
  store ptr %0, ptr %5, align 8, !tbaa !9
  store ptr %1, ptr %6, align 8, !tbaa !4
  store i64 %2, ptr %7, align 8, !tbaa !17
  call void @llvm.lifetime.start.p0(i64 8, ptr %8) #10
  call void @llvm.lifetime.start.p0(i64 8, ptr %9) #10
  %11 = load ptr, ptr %5, align 8, !tbaa !9
  %12 = load ptr, ptr %6, align 8, !tbaa !4
  %13 = load i64, ptr %7, align 8, !tbaa !17
  %14 = call ptr @base_alloc_impl(ptr noundef %11, ptr noundef %12, i64 noundef %13, i64 noundef 64, ptr noundef null, ptr noundef %8)
  store ptr %14, ptr %9, align 8, !tbaa !51
  %15 = load ptr, ptr %9, align 8, !tbaa !51
  %16 = icmp eq ptr %15, null
  br i1 %16, label %17, label %18

17:                                               ; preds = %3
  store ptr null, ptr %4, align 8
  store i32 1, ptr %10, align 4
  br label %25

18:                                               ; preds = %3
  %19 = load i64, ptr %8, align 8, !tbaa !17
  %20 = load ptr, ptr %6, align 8, !tbaa !4
  %21 = getelementptr inbounds nuw %struct.base_s, ptr %20, i32 0, i32 11
  %22 = load i64, ptr %21, align 8, !tbaa !40
  %23 = add i64 %22, %19
  store i64 %23, ptr %21, align 8, !tbaa !40
  %24 = load ptr, ptr %9, align 8, !tbaa !51
  store ptr %24, ptr %4, align 8
  store i32 1, ptr %10, align 4
  br label %25

25:                                               ; preds = %18, %17
  call void @llvm.lifetime.end.p0(i64 8, ptr %9) #10
  call void @llvm.lifetime.end.p0(i64 8, ptr %8) #10
  %26 = load ptr, ptr %4, align 8
  ret ptr %26
}