; Function Attrs: nounwind uwtable
define hidden noundef ptr @je_base_alloc_rtree(ptr noundef %0, ptr noundef %1, i64 noundef %2) local_unnamed_addr #1 {
  %4 = alloca i64, align 8
  call void @llvm.lifetime.start.p0(i64 8, ptr nonnull %4) #10
  %5 = call fastcc ptr @base_alloc_impl(ptr noundef %0, ptr noundef %1, i64 noundef %2, i64 noundef 64, ptr noundef null, ptr noundef nonnull %4)
  %6 = icmp eq ptr %5, null
  br i1 %6, label %12, label %7

7:                                                ; preds = %3
  %8 = load i64, ptr %4, align 8, !tbaa !11
  %9 = getelementptr inbounds nuw i8, ptr %1, i64 3912
  %10 = load i64, ptr %9, align 8, !tbaa !65
  %11 = add i64 %10, %8
  store i64 %11, ptr %9, align 8, !tbaa !65
  br label %12

12:                                               ; preds = %3, %7
  call void @llvm.lifetime.end.p0(i64 8, ptr nonnull %4) #10
  ret ptr %5
}